; Function Attrs: nounwind uwtable
define i32 @png_check_keyword(ptr noalias noundef %0, ptr noundef %1, ptr nocapture noundef writeonly %2) local_unnamed_addr #2 {
  %4 = alloca [8 x [32 x i8]], align 16
  %5 = icmp eq ptr %1, null
  br i1 %5, label %7, label %.preheader

.preheader:                                       ; preds = %3
  %6 = load i8, ptr %1, align 1
  %.not64 = icmp eq i8 %6, 0
  br i1 %.not64, label %._crit_edge, label %.lr.ph

7:                                                ; preds = %3
  store i8 0, ptr %2, align 1
  br label %38

.lr.ph:                                           ; preds = %.preheader, %23
  %8 = phi i8 [ %24, %23 ], [ %6, %.preheader ]
  %.04059 = phi i32 [ %.1, %23 ], [ 1, %.preheader ]
  %.04158 = phi i32 [ %.142, %23 ], [ 0, %.preheader ]
  %.04357 = phi i32 [ %.144, %23 ], [ 0, %.preheader ]
  %.04656 = phi ptr [ %9, %23 ], [ %1, %.preheader ]
  %.04755 = phi ptr [ %.148, %23 ], [ %2, %.preheader ]
  %9 = getelementptr inbounds i8, ptr %.04656, i64 1
  %10 = zext i8 %8 to i32
  %11 = add i8 %8, -127
  %or.cond = icmp ult i8 %11, -94
  %12 = icmp ult i8 %8, -95
  %or.cond5.not = and i1 %12, %or.cond
  br i1 %or.cond5.not, label %16, label %13

13:                                               ; preds = %.lr.ph
  %14 = getelementptr inbounds i8, ptr %.04755, i64 1
  store i8 %8, ptr %.04755, align 1
  %15 = add nuw nsw i32 %.04357, 1
  br label %23

16:                                               ; preds = %.lr.ph
  %17 = icmp eq i32 %.04059, 0
  br i1 %17, label %18, label %21

18:                                               ; preds = %16
  %19 = getelementptr inbounds i8, ptr %.04755, i64 1
  store i8 32, ptr %.04755, align 1
  %20 = add nuw nsw i32 %.04357, 1
  %.not53 = icmp eq i8 %8, 32
  %spec.select = select i1 %.not53, i32 %.04158, i32 %10
  br label %23

21:                                               ; preds = %16
  %22 = icmp eq i32 %.04158, 0
  %spec.select54 = select i1 %22, i32 %10, i32 %.04158
  br label %23

23:                                               ; preds = %21, %18, %13
  %.148 = phi ptr [ %14, %13 ], [ %19, %18 ], [ %.04755, %21 ]
  %.144 = phi i32 [ %15, %13 ], [ %20, %18 ], [ %.04357, %21 ]
  %.142 = phi i32 [ %.04158, %13 ], [ %spec.select, %18 ], [ %spec.select54, %21 ]
  %.1 = phi i32 [ 0, %13 ], [ 1, %18 ], [ 1, %21 ]
  %24 = load i8, ptr %9, align 1
  %25 = icmp ne i8 %24, 0
  %26 = icmp ult i32 %.144, 79
  %27 = select i1 %25, i1 %26, i1 false
  br i1 %27, label %.lr.ph, label %._crit_edge, !llvm.loop !33

._crit_edge:                                      ; preds = %23, %.preheader
  %.047.lcssa = phi ptr [ %2, %.preheader ], [ %.148, %23 ]
  %.046.lcssa = phi ptr [ %1, %.preheader ], [ %9, %23 ]
  %.043.lcssa = phi i32 [ 0, %.preheader ], [ %.144, %23 ]
  %.041.lcssa = phi i32 [ 0, %.preheader ], [ %.142, %23 ]
  %.040.lcssa = phi i1 [ true, %.preheader ], [ %or.cond5.not, %23 ]
  %28 = icmp ne i32 %.043.lcssa, 0
  %or.cond7 = and i1 %28, %.040.lcssa
  %29 = icmp eq i32 %.041.lcssa, 0
  %.249.idx = sext i1 %or.cond7 to i64
  %.249 = getelementptr inbounds i8, ptr %.047.lcssa, i64 %.249.idx
  %30 = sext i1 %or.cond7 to i32
  %.245 = add nsw i32 %.043.lcssa, %30
  %31 = select i1 %or.cond7, i1 %29, i1 false
  %.2 = select i1 %31, i32 32, i32 %.041.lcssa
  store i8 0, ptr %.249, align 1
  %32 = icmp eq i32 %.245, 0
  br i1 %32, label %38, label %33

33:                                               ; preds = %._crit_edge
  %34 = load i8, ptr %.046.lcssa, align 1
  %.not = icmp eq i8 %34, 0
  br i1 %.not, label %36, label %35

35:                                               ; preds = %33
  tail call void @png_warning(ptr noundef %0, ptr noundef nonnull @.str.53) #12
  br label %38

36:                                               ; preds = %33
  %.not52 = icmp eq i32 %.2, 0
  br i1 %.not52, label %38, label %37

37:                                               ; preds = %36
  call void @png_warning_parameter(ptr noundef nonnull %4, i32 noundef 1, ptr noundef nonnull %1) #12
  call void @png_warning_parameter_signed(ptr noundef nonnull %4, i32 noundef 2, i32 noundef 4, i32 noundef %.2) #12
  call void @png_formatted_warning(ptr noundef %0, ptr noundef nonnull %4, ptr noundef nonnull @.str.54) #12
  br label %38

38:                                               ; preds = %35, %37, %36, %._crit_edge, %7
  %.0 = phi i32 [ 0, %7 ], [ 0, %._crit_edge ], [ %.245, %36 ], [ %.245, %37 ], [ %.245, %35 ]
  ret i32 %.0
}